; Function Attrs: mustprogress nounwind uwtable
define hidden void @_ZN6regionD2Ev(ptr noundef nonnull readonly align 8 captures(none) dereferenceable(40) %this) unnamed_addr #4 align 2 personality ptr @__gxx_personality_v0 {
entry:
  %0 = load ptr, ptr %this, align 8
  invoke void @_Z9del_pagesPc(ptr noundef %0)
          to label %invoke.cont unwind label %terminate.lpad

invoke.cont:                                      ; preds = %entry
  %m_free_pages = getelementptr inbounds nuw i8, ptr %this, i64 24
  %1 = load ptr, ptr %m_free_pages, align 8
  invoke void @_Z9del_pagesPc(ptr noundef %1)
          to label %invoke.cont2 unwind label %terminate.lpad

invoke.cont2:                                     ; preds = %invoke.cont
  ret void

terminate.lpad:                                   ; preds = %invoke.cont, %entry
  %2 = landingpad { ptr, i32 }
          catch ptr null
  %3 = extractvalue { ptr, i32 } %2, 0
  tail call void @__clang_call_terminate(ptr %3) #9
  unreachable
}